target datalayout = "e-m:e-p270:32:32-p271:32:32-p272:64:64-i64:64-i128:128-f80:128-n8:16:32:64-S128"
target triple = "x86_64-pc-linux-gnu"

%struct.png_info_def = type { i32, i32, i32, i64, ptr, i16, i16, i8, i8, i8, i8, i8, i8, i8, i8, [8 x i8], %struct.png_colorspace, ptr, ptr, i32, i32, i32, ptr, %struct.png_time_struct, %struct.png_color_8_struct, ptr, %struct.png_color_16_struct, %struct.png_color_16_struct, i32, i32, i8, i32, i32, i8, i32, ptr, ptr, ptr, ptr, i32, i32, ptr, ptr, i8, i8, i32, ptr, i32, ptr, i32, i8, ptr, ptr, ptr }
%struct.png_colorspace = type { i32, %struct.png_xy, %struct.png_XYZ, i16, i16 }
%struct.png_xy = type { i32, i32, i32, i32, i32, i32, i32, i32 }
%struct.png_XYZ = type { i32, i32, i32, i32, i32, i32, i32, i32, i32 }
%struct.png_time_struct = type { i16, i8, i8, i8, i8, i8 }
%struct.png_color_8_struct = type { i8, i8, i8, i8, i8 }
%struct.png_color_16_struct = type { i8, i16, i16, i16, i16 }

; Function Attrs: nounwind uwtable
define void @png_set_gAMA_fixed(ptr noalias noundef %0, ptr noalias noundef %1, i32 noundef %2) #0 {
  %4 = alloca ptr, align 8
  %5 = alloca ptr, align 8
  %6 = alloca i32, align 4
  store ptr %0, ptr %4, align 8
  store ptr %1, ptr %5, align 8
  store i32 %2, ptr %6, align 4
  %7 = load ptr, ptr %4, align 8
  %8 = icmp eq ptr %7, null
  br i1 %8, label %12, label %9

9:                                                ; preds = %3
  %10 = load ptr, ptr %5, align 8
  %11 = icmp eq ptr %10, null
  br i1 %11, label %12, label %13

12:                                               ; preds = %9, %3
  br label %20

13:                                               ; preds = %9
  %14 = load ptr, ptr %4, align 8
  %15 = load ptr, ptr %5, align 8
  %16 = getelementptr inbounds %struct.png_info_def, ptr %15, i32 0, i32 16
  %17 = load i32, ptr %6, align 4
  call void @png_colorspace_set_gamma(ptr noundef %14, ptr noundef %16, i32 noundef %17)
  %18 = load ptr, ptr %4, align 8
  %19 = load ptr, ptr %5, align 8
  call void @png_colorspace_sync_info(ptr noundef %18, ptr noundef %19)
  br label %20

20:                                               ; preds = %13, %12
  ret void
}